; Function Attrs: mustprogress nofree norecurse nounwind willreturn memory(readwrite, argmem: read) uwtable
define noundef zeroext i1 @_ZNK6htif_t11should_exitEv(ptr noundef nonnull readonly align 8 captures(none) dereferenceable(712) %0) local_unnamed_addr #18 align 2 {
  %2 = load volatile i8, ptr @_ZL11signal_exit, align 1, !tbaa !91, !range !92, !noundef !93
  %3 = trunc nuw i8 %2 to i1
  %4 = getelementptr inbounds nuw i8, ptr %0, i64 180
  %5 = load i8, ptr %4, align 4, !range !92
  %6 = trunc nuw i8 %5 to i1
  %7 = select i1 %3, i1 true, i1 %6
  ret i1 %7
}